; Function Attrs: nounwind uwtable
define ptr @l_Array_foldlMUnsafe_fold___at_Lean_Elab_WF_GuessLex_withRecApps_loop___spec__24___rarg___boxed(ptr noundef %0, ptr noundef %1, ptr noundef %2, ptr noundef %3, ptr noundef %4, ptr noundef %5, ptr noundef %6, ptr noundef %7, ptr noundef %8, ptr noundef %9, ptr noundef %10, ptr noundef %11, ptr noundef %12, ptr noundef %13, ptr noundef %14) #1 {
  %16 = getelementptr i8, ptr %5, i64 8
  %.val26 = load i64, ptr %16, align 8, !tbaa !12
  %17 = ptrtoint ptr %5 to i64
  %18 = and i64 %17, 1
  %.not = icmp eq i64 %18, 0
  br i1 %.not, label %19, label %lean_dec.exit21

19:                                               ; preds = %15
  %20 = load i32, ptr %5, align 4, !tbaa !8
  %21 = icmp sgt i32 %20, 1
  br i1 %21, label %22, label %24, !prof !11

22:                                               ; preds = %19
  %23 = add nsw i32 %20, -1
  store i32 %23, ptr %5, align 4, !tbaa !8
  br label %lean_dec.exit21

24:                                               ; preds = %19
  %.not.i = icmp eq i32 %20, 0
  br i1 %.not.i, label %lean_dec.exit21, label %25

25:                                               ; preds = %24
  tail call void @lean_dec_ref_cold(ptr noundef nonnull %5) #8
  br label %lean_dec.exit21

lean_dec.exit21:                                  ; preds = %25, %24, %22, %15
  %26 = getelementptr i8, ptr %6, i64 8
  %.val = load i64, ptr %26, align 8, !tbaa !12
  %27 = ptrtoint ptr %6 to i64
  %28 = and i64 %27, 1
  %.not27 = icmp eq i64 %28, 0
  br i1 %.not27, label %29, label %lean_dec.exit20

29:                                               ; preds = %lean_dec.exit21
  %30 = load i32, ptr %6, align 4, !tbaa !8
  %31 = icmp sgt i32 %30, 1
  br i1 %31, label %32, label %34, !prof !11

32:                                               ; preds = %29
  %33 = add nsw i32 %30, -1
  store i32 %33, ptr %6, align 4, !tbaa !8
  br label %lean_dec.exit20

34:                                               ; preds = %29
  %.not.i22 = icmp eq i32 %30, 0
  br i1 %.not.i22, label %lean_dec.exit20, label %35

35:                                               ; preds = %34
  tail call void @lean_dec_ref_cold(ptr noundef nonnull %6) #8
  br label %lean_dec.exit20

lean_dec.exit20:                                  ; preds = %35, %34, %32, %lean_dec.exit21
  %36 = tail call ptr @l_Array_foldlMUnsafe_fold___at_Lean_Elab_WF_GuessLex_withRecApps_loop___spec__24___rarg(ptr noundef %0, ptr noundef %1, ptr noundef %2, ptr noundef %3, ptr noundef %4, i64 noundef %.val26, i64 noundef %.val, ptr noundef %7, ptr noundef %8, ptr noundef %9, ptr noundef %10, ptr noundef %11, ptr noundef %12, ptr noundef %13, ptr noundef %14)
  %37 = ptrtoint ptr %4 to i64
  %38 = and i64 %37, 1
  %.not28 = icmp eq i64 %38, 0
  br i1 %.not28, label %39, label %lean_dec.exit

39:                                               ; preds = %lean_dec.exit20
  %40 = load i32, ptr %4, align 4, !tbaa !8
  %41 = icmp sgt i32 %40, 1
  br i1 %41, label %42, label %44, !prof !11

42:                                               ; preds = %39
  %43 = add nsw i32 %40, -1
  store i32 %43, ptr %4, align 4, !tbaa !8
  br label %lean_dec.exit

44:                                               ; preds = %39
  %.not.i24 = icmp eq i32 %40, 0
  br i1 %.not.i24, label %lean_dec.exit, label %45

45:                                               ; preds = %44
  tail call void @lean_dec_ref_cold(ptr noundef nonnull %4) #8
  br label %lean_dec.exit

lean_dec.exit:                                    ; preds = %45, %44, %42, %lean_dec.exit20
  ret ptr %36
}